ccopy_reg
_reconstructor
p0
(cdataset.preprocessing.minmax_normalization
MinMaxNormalization
p1
c__builtin__
object
p2
Ntp3
Rp4
(dp5
S'_min'
p6
cnumpy.core.multiarray
scalar
p7
(cnumpy
dtype
p8
(S'f8'
p9
I0
I1
tp10
Rp11
(I3
S'<'
p12
NNNI-1
I-1
I0
tp13
bS'\x00\x00\x00\x00\x00\x00\x00\x00'
p14
tp15
Rp16
sS'_max'
p17
g7
(g11
S'\x00\x00\x00\x00(W\x04A'
p18
tp19
Rp20
sb.